; Function Attrs: mustprogress uwtable
define void @_ZN13sentencepiece31SentencePieceText_SentencePieceC2EPN6google8protobuf5ArenaE(ptr noundef nonnull align 8 dereferenceable(80) initializes((0, 16)) %0, ptr noundef %1) unnamed_addr #3 align 2 personality ptr @__gxx_personality_v0 {
_ZN6google8protobuf8internal7HasBitsILm1EEC2Ev.exit:
  %2 = getelementptr inbounds nuw i8, ptr %0, i64 8
  store ptr %1, ptr %2, align 8, !tbaa !3
  store ptr getelementptr inbounds nuw inrange(-16, 112) (i8, ptr @_ZTVN13sentencepiece31SentencePieceText_SentencePieceE, i64 16), ptr %0, align 8, !tbaa !8
  %3 = getelementptr inbounds nuw i8, ptr %0, i64 16
  tail call void @_ZN6google8protobuf8internal12ExtensionSetC1EPNS0_5ArenaE(ptr noundef nonnull align 8 dereferenceable(24) %3, ptr noundef %1)
  %.ptr = getelementptr inbounds nuw i8, ptr %0, i64 40
  store i32 0, ptr %.ptr, align 8, !tbaa !29
  %4 = getelementptr inbounds nuw i8, ptr %0, i64 44
  store i32 0, ptr %4, align 4, !tbaa !30
  %5 = load atomic i32, ptr @scc_info_SentencePieceText_SentencePiece_sentencepiece_2eproto acquire, align 8
  %.not.i.i = icmp eq i32 %5, 0
  br i1 %.not.i.i, label %7, label %6, !prof !10

6:                                                ; preds = %_ZN6google8protobuf8internal7HasBitsILm1EEC2Ev.exit
  invoke void @_ZN6google8protobuf8internal11InitSCCImplEPNS1_11SCCInfoBaseE(ptr noundef nonnull @scc_info_SentencePieceText_SentencePiece_sentencepiece_2eproto)
          to label %7 unwind label %11

7:                                                ; preds = %_ZN6google8protobuf8internal7HasBitsILm1EEC2Ev.exit, %6
  %8 = getelementptr inbounds nuw i8, ptr %0, i64 48
  store ptr @_ZN6google8protobuf8internal26fixed_address_empty_stringE, ptr %8, align 8, !tbaa !11
  %9 = getelementptr inbounds nuw i8, ptr %0, i64 56
  store ptr @_ZN6google8protobuf8internal26fixed_address_empty_stringE, ptr %9, align 8, !tbaa !11
  %10 = getelementptr inbounds nuw i8, ptr %0, i64 64
  tail call void @llvm.memset.p0.i64(ptr noundef nonnull align 8 dereferenceable(12) %10, i8 0, i64 12, i1 false)
  ret void

11:                                               ; preds = %6
  %12 = landingpad { ptr, i32 }
          cleanup
  tail call void @_ZN6google8protobuf8internal12ExtensionSetD1Ev(ptr noundef nonnull align 8 dereferenceable(24) %3) #19
  resume { ptr, i32 } %12
}